; ModuleID = '53/1007.c'
source_filename = "53/1007.c"
target datalayout = "e-m:e-p270:32:32-p271:32:32-p272:64:64-i64:64-f80:128-n8:16:32:64-S128"
target triple = "x86_64-pc-linux-gnu"

@.str = private unnamed_addr constant [3 x i8] c"%d\00", align 1
@.str.1 = private unnamed_addr constant [4 x i8] c"%d,\00", align 1

; Function Attrs: noinline nounwind uwtable
define dso_local i32 @main() #0 {
  %1 = alloca i32, align 4
  %2 = alloca i32, align 4
  %3 = alloca [300 x i32], align 16
  %4 = alloca [300 x i32], align 16
  %5 = alloca i32, align 4
  %6 = alloca i32, align 4
  %7 = alloca i32, align 4
  %8 = alloca i32, align 4
  store i32 0, i32* %1, align 4
  store i32 1, i32* %7, align 4
  store i32 1, i32* %8, align 4
  %9 = call i32 (i8*, ...) @__isoc99_scanf(i8* getelementptr inbounds ([3 x i8], [3 x i8]* @.str, i64 0, i64 0), i32* %2)
  store i32 0, i32* %5, align 4
  br label %10

10:                                               ; preds = %47, %0
  %11 = load i32, i32* %5, align 4
  %12 = load i32, i32* %2, align 4
  %13 = icmp slt i32 %11, %12
  br i1 %13, label %14, label %50

14:                                               ; preds = %10
  %15 = load i32, i32* %5, align 4
  %16 = sext i32 %15 to i64
  %17 = getelementptr inbounds [300 x i32], [300 x i32]* %3, i64 0, i64 %16
  %18 = call i32 (i8*, ...) @__isoc99_scanf(i8* getelementptr inbounds ([3 x i8], [3 x i8]* @.str, i64 0, i64 0), i32* %17)
  store i32 0, i32* %6, align 4
  br label %19

19:                                               ; preds = %43, %14
  %20 = load i32, i32* %6, align 4
  %21 = load i32, i32* %5, align 4
  %22 = icmp slt i32 %20, %21
  br i1 %22, label %23, label %46

23:                                               ; preds = %19
  %24 = load i32, i32* %5, align 4
  %25 = sext i32 %24 to i64
  %26 = getelementptr inbounds [300 x i32], [300 x i32]* %3, i64 0, i64 %25
  %27 = load i32, i32* %26, align 4
  %28 = load i32, i32* %6, align 4
  %29 = sext i32 %28 to i64
  %30 = getelementptr inbounds [300 x i32], [300 x i32]* %3, i64 0, i64 %29
  %31 = load i32, i32* %30, align 4
  %32 = icmp eq i32 %27, %31
  br i1 %32, label %33, label %34

33:                                               ; preds = %23
  br label %46

34:                                               ; preds = %23
  %35 = load i32, i32* %6, align 4
  %36 = load i32, i32* %5, align 4
  %37 = sub nsw i32 %36, 1
  %38 = icmp eq i32 %35, %37
  br i1 %38, label %39, label %42

39:                                               ; preds = %34
  %40 = load i32, i32* %7, align 4
  %41 = add nsw i32 %40, 1
  store i32 %41, i32* %7, align 4
  br label %42

42:                                               ; preds = %39, %34
  br label %43

43:                                               ; preds = %42
  %44 = load i32, i32* %6, align 4
  %45 = add nsw i32 %44, 1
  store i32 %45, i32* %6, align 4
  br label %19

46:                                               ; preds = %33, %19
  br label %47

47:                                               ; preds = %46
  %48 = load i32, i32* %5, align 4
  %49 = add nsw i32 %48, 1
  store i32 %49, i32* %5, align 4
  br label %10

50:                                               ; preds = %10
  store i32 0, i32* %5, align 4
  br label %51

51:                                               ; preds = %118, %50
  %52 = load i32, i32* %5, align 4
  %53 = load i32, i32* %2, align 4
  %54 = icmp slt i32 %52, %53
  br i1 %54, label %55, label %121

55:                                               ; preds = %51
  store i32 0, i32* %6, align 4
  br label %56

56:                                               ; preds = %107, %55
  %57 = load i32, i32* %6, align 4
  %58 = load i32, i32* %5, align 4
  %59 = icmp slt i32 %57, %58
  br i1 %59, label %60, label %110

60:                                               ; preds = %56
  %61 = load i32, i32* %5, align 4
  %62 = sext i32 %61 to i64
  %63 = getelementptr inbounds [300 x i32], [300 x i32]* %3, i64 0, i64 %62
  %64 = load i32, i32* %63, align 4
  %65 = load i32, i32* %6, align 4
  %66 = sext i32 %65 to i64
  %67 = getelementptr inbounds [300 x i32], [300 x i32]* %3, i64 0, i64 %66
  %68 = load i32, i32* %67, align 4
  %69 = icmp eq i32 %64, %68
  br i1 %69, label %70, label %71

70:                                               ; preds = %60
  br label %110

71:                                               ; preds = %60
  %72 = load i32, i32* %6, align 4
  %73 = load i32, i32* %5, align 4
  %74 = sub nsw i32 %73, 1
  %75 = icmp eq i32 %72, %74
  br i1 %75, label %76, label %89

76:                                               ; preds = %71
  %77 = load i32, i32* %8, align 4
  %78 = load i32, i32* %7, align 4
  %79 = sub nsw i32 %78, 1
  %80 = icmp slt i32 %77, %79
  br i1 %80, label %81, label %89

81:                                               ; preds = %76
  %82 = load i32, i32* %5, align 4
  %83 = sext i32 %82 to i64
  %84 = getelementptr inbounds [300 x i32], [300 x i32]* %3, i64 0, i64 %83
  %85 = load i32, i32* %84, align 4
  %86 = call i32 (i8*, ...) @printf(i8* getelementptr inbounds ([4 x i8], [4 x i8]* @.str.1, i64 0, i64 0), i32 %85)
  %87 = load i32, i32* %8, align 4
  %88 = add nsw i32 %87, 1
  store i32 %88, i32* %8, align 4
  br label %106

89:                                               ; preds = %76, %71
  %90 = load i32, i32* %6, align 4
  %91 = load i32, i32* %5, align 4
  %92 = sub nsw i32 %91, 1
  %93 = icmp eq i32 %90, %92
  br i1 %93, label %94, label %105

94:                                               ; preds = %89
  %95 = load i32, i32* %8, align 4
  %96 = load i32, i32* %7, align 4
  %97 = sub nsw i32 %96, 1
  %98 = icmp eq i32 %95, %97
  br i1 %98, label %99, label %105

99:                                               ; preds = %94
  %100 = load i32, i32* %5, align 4
  %101 = sext i32 %100 to i64
  %102 = getelementptr inbounds [300 x i32], [300 x i32]* %3, i64 0, i64 %101
  %103 = load i32, i32* %102, align 4
  %104 = call i32 (i8*, ...) @printf(i8* getelementptr inbounds ([3 x i8], [3 x i8]* @.str, i64 0, i64 0), i32 %103)
  br label %105

105:                                              ; preds = %99, %94, %89
  br label %106

106:                                              ; preds = %105, %81
  br label %107

107:                                              ; preds = %106
  %108 = load i32, i32* %6, align 4
  %109 = add nsw i32 %108, 1
  store i32 %109, i32* %6, align 4
  br label %56

110:                                              ; preds = %70, %56
  %111 = load i32, i32* %5, align 4
  %112 = icmp eq i32 %111, 0
  br i1 %112, label %113, label %117

113:                                              ; preds = %110
  %114 = getelementptr inbounds [300 x i32], [300 x i32]* %3, i64 0, i64 0
  %115 = load i32, i32* %114, align 16
  %116 = call i32 (i8*, ...) @printf(i8* getelementptr inbounds ([4 x i8], [4 x i8]* @.str.1, i64 0, i64 0), i32 %115)
  br label %117

117:                                              ; preds = %113, %110
  br label %118

118:                                              ; preds = %117
  %119 = load i32, i32* %5, align 4
  %120 = add nsw i32 %119, 1
  store i32 %120, i32* %5, align 4
  br label %51

121:                                              ; preds = %51
  ret i32 0
}

declare dso_local i32 @__isoc99_scanf(i8*, ...) #1

declare dso_local i32 @printf(i8*, ...) #1


!llvm.module.flags = !{!0}
!llvm.ident = !{!1}

!0 = !{i32 1, !"wchar_size", i32 4}
!1 = !{!"clang version 10.0.0-4ubuntu1 "}
